target datalayout = "e-m:e-p270:32:32-p271:32:32-p272:64:64-i64:64-i128:128-f80:128-n8:16:32:64-S128"
target triple = "x86_64-pc-linux-gnu"

%struct.UConverter = type { ptr, ptr, ptr, ptr, ptr, ptr, ptr, i32, i8, i8, i8, i8, i8, [7 x i8], i32, i32, i32, i32, i8, i8, i8, i8, i8, i8, i8, i8, [8 x i8], [32 x i8], [2 x i16], [2 x i16], [32 x i16], i32, [19 x i16], [31 x i8], i8, i8, i8, i32 }

; Function Attrs: inlinehint mustprogress nounwind uwtable
define internal noundef signext i8 @_ZL9U_FAILURE10UErrorCode(i32 noundef %0) #2 {
  %2 = alloca i32, align 4
  store i32 %0, ptr %2, align 4, !tbaa !9
  %3 = load i32, ptr %2, align 4, !tbaa !9
  %4 = icmp sgt i32 %3, 0
  %5 = zext i1 %4 to i8
  ret i8 %5
}

; Function Attrs: mustprogress uwtable
define void @ucnv_setFromUCallBack_77(ptr noundef %0, ptr noundef %1, ptr noundef %2, ptr noundef %3, ptr noundef %4, ptr noundef %5) #0 {
  %7 = alloca ptr, align 8
  %8 = alloca ptr, align 8
  %9 = alloca ptr, align 8
  %10 = alloca ptr, align 8
  %11 = alloca ptr, align 8
  %12 = alloca ptr, align 8
  store ptr %0, ptr %7, align 8, !tbaa !11
  store ptr %1, ptr %8, align 8, !tbaa !8
  store ptr %2, ptr %9, align 8, !tbaa !8
  store ptr %3, ptr %10, align 8, !tbaa !60
  store ptr %4, ptr %11, align 8, !tbaa !60
  store ptr %5, ptr %12, align 8, !tbaa !8
  %13 = load ptr, ptr %12, align 8, !tbaa !8
  %14 = load i32, ptr %13, align 4, !tbaa !9
  %15 = call noundef signext i8 @_ZL9U_FAILURE10UErrorCode(i32 noundef %14)
  %16 = icmp ne i8 %15, 0
  br i1 %16, label %17, label %18

17:                                               ; preds = %6
  br label %41

18:                                               ; preds = %6
  %19 = load ptr, ptr %10, align 8, !tbaa !60
  %20 = icmp ne ptr %19, null
  br i1 %20, label %21, label %26

21:                                               ; preds = %18
  %22 = load ptr, ptr %7, align 8, !tbaa !11
  %23 = getelementptr inbounds nuw %struct.UConverter, ptr %22, i32 0, i32 0
  %24 = load ptr, ptr %23, align 8, !tbaa !49
  %25 = load ptr, ptr %10, align 8, !tbaa !60
  store ptr %24, ptr %25, align 8, !tbaa !8
  br label %26

26:                                               ; preds = %21, %18
  %27 = load ptr, ptr %8, align 8, !tbaa !8
  %28 = load ptr, ptr %7, align 8, !tbaa !11
  %29 = getelementptr inbounds nuw %struct.UConverter, ptr %28, i32 0, i32 0
  store ptr %27, ptr %29, align 8, !tbaa !49
  %30 = load ptr, ptr %11, align 8, !tbaa !60
  %31 = icmp ne ptr %30, null
  br i1 %31, label %32, label %37

32:                                               ; preds = %26
  %33 = load ptr, ptr %7, align 8, !tbaa !11
  %34 = getelementptr inbounds nuw %struct.UConverter, ptr %33, i32 0, i32 3
  %35 = load ptr, ptr %34, align 8, !tbaa !50
  %36 = load ptr, ptr %11, align 8, !tbaa !60
  store ptr %35, ptr %36, align 8, !tbaa !8
  br label %37

37:                                               ; preds = %32, %26
  %38 = load ptr, ptr %9, align 8, !tbaa !8
  %39 = load ptr, ptr %7, align 8, !tbaa !11
  %40 = getelementptr inbounds nuw %struct.UConverter, ptr %39, i32 0, i32 3
  store ptr %38, ptr %40, align 8, !tbaa !50
  br label %41

41:                                               ; preds = %37, %17
  ret void
}