; Function Attrs: mustprogress nofree norecurse nosync nounwind willreturn memory(argmem: readwrite) uwtable
define void @ucnv_setFromUCallBack_77(ptr noundef captures(none) %0, ptr noundef %1, ptr noundef %2, ptr noundef writeonly %3, ptr noundef writeonly %4, ptr noundef readonly captures(none) %5) local_unnamed_addr #7 {
  %7 = load i32, ptr %5, align 4, !tbaa !3
  %8 = icmp slt i32 %7, 1
  br i1 %8, label %9, label %18

9:                                                ; preds = %6
  %.not12 = icmp eq ptr %3, null
  br i1 %.not12, label %12, label %10

10:                                               ; preds = %9
  %11 = load ptr, ptr %0, align 8, !tbaa !40
  store ptr %11, ptr %3, align 8, !tbaa !51
  br label %12

12:                                               ; preds = %10, %9
  store ptr %1, ptr %0, align 8, !tbaa !40
  %.not13 = icmp eq ptr %4, null
  br i1 %.not13, label %16, label %13

13:                                               ; preds = %12
  %14 = getelementptr inbounds nuw i8, ptr %0, i64 24
  %15 = load ptr, ptr %14, align 8, !tbaa !41
  store ptr %15, ptr %4, align 8, !tbaa !51
  br label %16

16:                                               ; preds = %13, %12
  %17 = getelementptr inbounds nuw i8, ptr %0, i64 24
  store ptr %2, ptr %17, align 8, !tbaa !41
  br label %18

18:                                               ; preds = %6, %16
  ret void
}